target datalayout = "e-m:e-p270:32:32-p271:32:32-p272:64:64-i64:64-i128:128-f80:128-n8:16:32:64-S128"
target triple = "x86_64-pc-linux-gnu"

%"struct.boost::source_location" = type { ptr, ptr, i32, i32 }
%"struct.boost::process::v2::basic_cstring_ref" = type { ptr }
%"class.boost::system::error_code" = type { %union.anon.1, i64 }
%union.anon.1 = type { %"struct.boost::system::error_code::data" }
%"struct.boost::system::error_code::data" = type { i32, ptr }

@_ZZN5boost7process2v211environment6detail3setENS1_17basic_cstring_refIcSt11char_traitsIcEEES7_RNS_6system10error_codeEE11loc__LINE__ = internal constant %"struct.boost::source_location" { ptr @.str, ptr @.str.2, i32 44, i32 46 }, align 8

; Function Attrs: mustprogress nounwind uwtable
define linkonce_odr hidden void @_ZN5boost6system10error_codeC2ERKS1_PKNS_15source_locationE(ptr noundef nonnull align 8 dereferenceable(24) %0, ptr noundef nonnull align 8 dereferenceable(24) %1, ptr noundef %2) unnamed_addr #2 comdat align 2 {
  %4 = alloca ptr, align 8
  %5 = alloca ptr, align 8
  %6 = alloca ptr, align 8
  store ptr %0, ptr %4, align 8, !tbaa !7
  store ptr %1, ptr %5, align 8, !tbaa !7
  store ptr %2, ptr %6, align 8, !tbaa !7
  %7 = load ptr, ptr %4, align 8
  %8 = getelementptr inbounds nuw %"class.boost::system::error_code", ptr %7, i32 0, i32 0
  call void @llvm.memset.p0.i64(ptr align 8 %8, i8 0, i64 16, i1 false)
  %9 = getelementptr inbounds nuw %"class.boost::system::error_code", ptr %7, i32 0, i32 1
  store i64 0, ptr %9, align 8, !tbaa !24
  %10 = load ptr, ptr %5, align 8, !tbaa !7
  call void @llvm.memcpy.p0.p0.i64(ptr align 8 %7, ptr align 8 %10, i64 24, i1 false), !tbaa.struct !14
  %11 = load ptr, ptr %5, align 8, !tbaa !7
  %12 = getelementptr inbounds nuw %"class.boost::system::error_code", ptr %11, i32 0, i32 1
  %13 = load i64, ptr %12, align 8, !tbaa !24
  %14 = icmp ne i64 %13, 0
  br i1 %14, label %15, label %35

15:                                               ; preds = %3
  %16 = load ptr, ptr %5, align 8, !tbaa !7
  %17 = getelementptr inbounds nuw %"class.boost::system::error_code", ptr %16, i32 0, i32 1
  %18 = load i64, ptr %17, align 8, !tbaa !24
  %19 = icmp ne i64 %18, 1
  br i1 %19, label %20, label %35

20:                                               ; preds = %15
  %21 = load ptr, ptr %6, align 8, !tbaa !7
  %22 = icmp ne ptr %21, null
  br i1 %22, label %23, label %26

23:                                               ; preds = %20
  %24 = load ptr, ptr %6, align 8, !tbaa !7
  %25 = ptrtoint ptr %24 to i64
  br label %27

26:                                               ; preds = %20
  br label %27

27:                                               ; preds = %26, %23
  %28 = phi i64 [ %25, %23 ], [ 2, %26 ]
  %29 = load ptr, ptr %5, align 8, !tbaa !7
  %30 = getelementptr inbounds nuw %"class.boost::system::error_code", ptr %29, i32 0, i32 1
  %31 = load i64, ptr %30, align 8, !tbaa !24
  %32 = and i64 %31, 1
  %33 = or i64 %28, %32
  %34 = getelementptr inbounds nuw %"class.boost::system::error_code", ptr %7, i32 0, i32 1
  store i64 %33, ptr %34, align 8, !tbaa !24
  br label %35

35:                                               ; preds = %27, %15, %3
  ret void
}

; Function Attrs: mustprogress nounwind uwtable
define linkonce_odr hidden noundef ptr @_ZNK5boost7process2v217basic_cstring_refIcSt11char_traitsIcEE4dataEv(ptr noundef nonnull align 8 dereferenceable(8) %0) #2 comdat align 2 {
  %2 = alloca ptr, align 8
  store ptr %0, ptr %2, align 8, !tbaa !7
  %3 = load ptr, ptr %2, align 8
  %4 = getelementptr inbounds nuw %"struct.boost::process::v2::basic_cstring_ref", ptr %3, i32 0, i32 0
  %5 = load ptr, ptr %4, align 8, !tbaa !18
  ret ptr %5
}

; Function Attrs: mustprogress nounwind uwtable
define linkonce_odr hidden void @_ZN5boost6system10error_code6assignERKS1_PKNS_15source_locationE(ptr noundef nonnull align 8 dereferenceable(24) %0, ptr noundef nonnull align 8 dereferenceable(24) %1, ptr noundef %2) #2 comdat align 2 {
  %4 = alloca ptr, align 8
  %5 = alloca ptr, align 8
  %6 = alloca ptr, align 8
  %7 = alloca %"class.boost::system::error_code", align 8
  store ptr %0, ptr %4, align 8, !tbaa !7
  store ptr %1, ptr %5, align 8, !tbaa !7
  store ptr %2, ptr %6, align 8, !tbaa !7
  %8 = load ptr, ptr %4, align 8
  call void @llvm.lifetime.start.p0(i64 24, ptr %7) #13
  %9 = load ptr, ptr %5, align 8, !tbaa !7
  %10 = load ptr, ptr %6, align 8, !tbaa !7
  call void @_ZN5boost6system10error_codeC2ERKS1_PKNS_15source_locationE(ptr noundef nonnull align 8 dereferenceable(24) %7, ptr noundef nonnull align 8 dereferenceable(24) %9, ptr noundef %10) #13
  call void @llvm.memcpy.p0.p0.i64(ptr align 8 %8, ptr align 8 %7, i64 24, i1 false), !tbaa.struct !14
  call void @llvm.lifetime.end.p0(i64 24, ptr %7) #13
  ret void
}

; Function Attrs: mustprogress nounwind uwtable
define linkonce_odr hidden noundef ptr @_ZNK5boost7process2v217basic_cstring_refIcSt11char_traitsIcEE5c_strEv(ptr noundef nonnull align 8 dereferenceable(8) %0) #2 comdat align 2 {
  %2 = alloca ptr, align 8
  store ptr %0, ptr %2, align 8, !tbaa !7
  %3 = load ptr, ptr %2, align 8
  %4 = call noundef ptr @_ZNK5boost7process2v217basic_cstring_refIcSt11char_traitsIcEE4dataEv(ptr noundef nonnull align 8 dereferenceable(8) %3) #13
  ret ptr %4
}

; Function Attrs: mustprogress uwtable
define void @_ZN5boost7process2v211environment6detail3setENS1_17basic_cstring_refIcSt11char_traitsIcEEES7_RNS_6system10error_codeE(ptr %0, ptr %1, ptr noundef nonnull align 8 dereferenceable(24) %2) #5 {
  %4 = alloca %"struct.boost::process::v2::basic_cstring_ref", align 8
  %5 = alloca %"struct.boost::process::v2::basic_cstring_ref", align 8
  %6 = alloca ptr, align 8
  %7 = alloca %"class.boost::system::error_code", align 8
  %8 = getelementptr inbounds nuw %"struct.boost::process::v2::basic_cstring_ref", ptr %4, i32 0, i32 0
  store ptr %0, ptr %8, align 8
  %9 = getelementptr inbounds nuw %"struct.boost::process::v2::basic_cstring_ref", ptr %5, i32 0, i32 0
  store ptr %1, ptr %9, align 8
  store ptr %2, ptr %6, align 8, !tbaa !7
  %10 = call noundef ptr @_ZNK5boost7process2v217basic_cstring_refIcSt11char_traitsIcEE5c_strEv(ptr noundef nonnull align 8 dereferenceable(8) %4) #13
  %11 = call noundef ptr @_ZNK5boost7process2v217basic_cstring_refIcSt11char_traitsIcEE5c_strEv(ptr noundef nonnull align 8 dereferenceable(8) %5) #13
  %12 = call i32 @setenv(ptr noundef %10, ptr noundef %11, i32 noundef 1) #13
  %13 = icmp ne i32 %12, 0
  br i1 %13, label %14, label %16

14:                                               ; preds = %3
  %15 = load ptr, ptr %6, align 8, !tbaa !7
  call void @llvm.lifetime.start.p0(i64 24, ptr %7) #13
  call void @_ZN5boost7process2v26detail14get_last_errorEv(ptr dead_on_unwind writable sret(%"class.boost::system::error_code") align 8 %7)
  call void @_ZN5boost6system10error_code6assignERKS1_PKNS_15source_locationE(ptr noundef nonnull align 8 dereferenceable(24) %15, ptr noundef nonnull align 8 dereferenceable(24) %7, ptr noundef @_ZZN5boost7process2v211environment6detail3setENS1_17basic_cstring_refIcSt11char_traitsIcEEES7_RNS_6system10error_codeEE11loc__LINE__) #13
  call void @llvm.lifetime.end.p0(i64 24, ptr %7) #13
  br label %16

16:                                               ; preds = %14, %3
  ret void
}