; Function Attrs: mustprogress uwtable
define void @_ZN5boost7process2v211environment6detail3setENS1_17basic_cstring_refIcSt11char_traitsIcEEES7_RNS_6system10error_codeE(ptr %0, ptr %1, ptr nocapture noundef nonnull writeonly align 8 dereferenceable(24) %2) local_unnamed_addr #4 {
  %4 = alloca %"class.boost::system::error_code", align 8
  %5 = tail call i32 @setenv(ptr noundef %0, ptr noundef %1, i32 noundef 1) #18
  %.not = icmp eq i32 %5, 0
  br i1 %.not, label %9, label %6

6:                                                ; preds = %3
  call void @llvm.lifetime.start.p0(i64 24, ptr nonnull %4) #18
  call void @_ZN5boost7process2v26detail14get_last_errorEv(ptr dead_on_unwind nonnull writable sret(%"class.boost::system::error_code") align 8 %4)
  %.sroa.5.0..sroa_idx3.i = getelementptr inbounds i8, ptr %4, i64 16
  %.sroa.5.0.copyload4.i = load i64, ptr %.sroa.5.0..sroa_idx3.i, align 8, !tbaa !14
  %switch.i.i = icmp ult i64 %.sroa.5.0.copyload4.i, 2
  %7 = and i64 %.sroa.5.0.copyload4.i, 1
  %8 = or disjoint i64 %7, ptrtoint (ptr @_ZZN5boost7process2v211environment6detail3setENS1_17basic_cstring_refIcSt11char_traitsIcEEES7_RNS_6system10error_codeEE11loc__LINE__ to i64)
  %.sroa.5.0.i = select i1 %switch.i.i, i64 %.sroa.5.0.copyload4.i, i64 %8
  call void @llvm.memcpy.p0.p0.i64(ptr noundef nonnull align 8 dereferenceable(24) %2, ptr noundef nonnull align 8 dereferenceable(24) %4, i64 16, i1 false)
  %.sroa.5.0..sroa_idx.i = getelementptr inbounds i8, ptr %2, i64 16
  store i64 %.sroa.5.0.i, ptr %.sroa.5.0..sroa_idx.i, align 8, !tbaa !14
  call void @llvm.lifetime.end.p0(i64 24, ptr nonnull %4) #18
  br label %9

9:                                                ; preds = %6, %3
  ret void
}